target datalayout = "e-m:e-p270:32:32-p271:32:32-p272:64:64-i64:64-i128:128-f80:128-n8:16:32:64-S128"
target triple = "x86_64-unknown-linux-gnu"

%"struct.std::_Rb_tree_header" = type { %"struct.std::_Rb_tree_node_base", i64 }
%"struct.std::_Rb_tree_node_base" = type { i32, ptr, ptr, ptr }
%"class.std::_Rb_tree.173" = type { %"struct.std::_Rb_tree<grpc_server_config_fetcher::WatcherInterface *, std::pair<grpc_server_config_fetcher::WatcherInterface *const, grpc_core::(anonymous namespace)::XdsServerConfigFetcher::ListenerWatcher *>, std::_Select1st<std::pair<grpc_server_config_fetcher::WatcherInterface *const, grpc_core::(anonymous namespace)::XdsServerConfigFetcher::ListenerWatcher *>>, std::less<grpc_server_config_fetcher::WatcherInterface *>>::_Rb_tree_impl" }
%"struct.std::_Rb_tree<grpc_server_config_fetcher::WatcherInterface *, std::pair<grpc_server_config_fetcher::WatcherInterface *const, grpc_core::(anonymous namespace)::XdsServerConfigFetcher::ListenerWatcher *>, std::_Select1st<std::pair<grpc_server_config_fetcher::WatcherInterface *const, grpc_core::(anonymous namespace)::XdsServerConfigFetcher::ListenerWatcher *>>, std::less<grpc_server_config_fetcher::WatcherInterface *>>::_Rb_tree_impl" = type { %"struct.std::_Rb_tree_key_compare.177", %"struct.std::_Rb_tree_header" }
%"struct.std::_Rb_tree_key_compare.177" = type { %"struct.std::less.178" }
%"struct.std::less.178" = type { i8 }
%"struct.std::_Rb_tree_node" = type { %"struct.std::_Rb_tree_node_base", %"struct.__gnu_cxx::__aligned_membuf" }
%"struct.__gnu_cxx::__aligned_membuf" = type { [16 x i8] }

; Function Attrs: mustprogress nounwind uwtable
define internal noundef ptr @_ZN9__gnu_cxx16__aligned_membufISt4pairIKPN26grpc_server_config_fetcher16WatcherInterfaceEPN9grpc_core12_GLOBAL__N_122XdsServerConfigFetcher15ListenerWatcherEEE7_M_addrEv(ptr noundef nonnull align 8 dereferenceable(16) %this) #5 align 2 {
entry:
  %this.addr = alloca ptr, align 8
  store ptr %this, ptr %this.addr, align 8
  %this1 = load ptr, ptr %this.addr, align 8
  %_M_storage = getelementptr inbounds %"struct.__gnu_cxx::__aligned_membuf", ptr %this1, i32 0, i32 0
  ret ptr %_M_storage
}

; Function Attrs: mustprogress nounwind uwtable
define internal void @_ZNSt15__new_allocatorISt13_Rb_tree_nodeISt4pairIKPN26grpc_server_config_fetcher16WatcherInterfaceEPN9grpc_core12_GLOBAL__N_122XdsServerConfigFetcher15ListenerWatcherEEEE10deallocateEPSC_m(ptr noundef nonnull align 1 dereferenceable(1) %this, ptr noundef %__p, i64 noundef %__n) #5 align 2 {
entry:
  %this.addr = alloca ptr, align 8
  %__p.addr = alloca ptr, align 8
  %__n.addr = alloca i64, align 8
  store ptr %this, ptr %this.addr, align 8
  store ptr %__p, ptr %__p.addr, align 8
  store i64 %__n, ptr %__n.addr, align 8
  %0 = load ptr, ptr %__p.addr, align 8
  call void @_ZdlPv(ptr noundef %0) #19
  ret void
}

; Function Attrs: mustprogress nounwind uwtable
define internal void @_ZNSt15__new_allocatorISt13_Rb_tree_nodeISt4pairIKPN26grpc_server_config_fetcher16WatcherInterfaceEPN9grpc_core12_GLOBAL__N_122XdsServerConfigFetcher15ListenerWatcherEEEE7destroyISB_EEvPT_(ptr noundef nonnull align 1 dereferenceable(1) %this, ptr noundef %__p) #5 align 2 {
entry:
  %this.addr = alloca ptr, align 8
  %__p.addr = alloca ptr, align 8
  store ptr %this, ptr %this.addr, align 8
  store ptr %__p, ptr %__p.addr, align 8
  ret void
}

; Function Attrs: mustprogress nounwind uwtable
define internal noundef ptr @_ZN9__gnu_cxx16__aligned_membufISt4pairIKPN26grpc_server_config_fetcher16WatcherInterfaceEPN9grpc_core12_GLOBAL__N_122XdsServerConfigFetcher15ListenerWatcherEEE6_M_ptrEv(ptr noundef nonnull align 8 dereferenceable(16) %this) #5 align 2 {
entry:
  %this.addr = alloca ptr, align 8
  store ptr %this, ptr %this.addr, align 8
  %this1 = load ptr, ptr %this.addr, align 8
  %call = call noundef ptr @_ZN9__gnu_cxx16__aligned_membufISt4pairIKPN26grpc_server_config_fetcher16WatcherInterfaceEPN9grpc_core12_GLOBAL__N_122XdsServerConfigFetcher15ListenerWatcherEEE7_M_addrEv(ptr noundef nonnull align 8 dereferenceable(16) %this1) #3
  ret ptr %call
}

; Function Attrs: mustprogress uwtable
define internal void @_ZNSt16allocator_traitsISaISt13_Rb_tree_nodeISt4pairIKPN26grpc_server_config_fetcher16WatcherInterfaceEPN9grpc_core12_GLOBAL__N_122XdsServerConfigFetcher15ListenerWatcherEEEEE10deallocateERSD_PSC_m(ptr noundef nonnull align 1 dereferenceable(1) %__a, ptr noundef %__p, i64 noundef %__n) #4 align 2 {
entry:
  %__a.addr = alloca ptr, align 8
  %__p.addr = alloca ptr, align 8
  %__n.addr = alloca i64, align 8
  store ptr %__a, ptr %__a.addr, align 8
  store ptr %__p, ptr %__p.addr, align 8
  store i64 %__n, ptr %__n.addr, align 8
  %0 = load ptr, ptr %__a.addr, align 8
  %1 = load ptr, ptr %__p.addr, align 8
  %2 = load i64, ptr %__n.addr, align 8
  call void @_ZNSt15__new_allocatorISt13_Rb_tree_nodeISt4pairIKPN26grpc_server_config_fetcher16WatcherInterfaceEPN9grpc_core12_GLOBAL__N_122XdsServerConfigFetcher15ListenerWatcherEEEE10deallocateEPSC_m(ptr noundef nonnull align 1 dereferenceable(1) %0, ptr noundef %1, i64 noundef %2)
  ret void
}

; Function Attrs: noreturn nounwind uwtable
define linkonce_odr hidden void @__clang_call_terminate(ptr noundef %0) #10 comdat {
  %2 = call ptr @__cxa_begin_catch(ptr %0) #3
  call void @_ZSt9terminatev() #21
  unreachable
}

; Function Attrs: mustprogress nounwind uwtable
define internal void @_ZNSt16allocator_traitsISaISt13_Rb_tree_nodeISt4pairIKPN26grpc_server_config_fetcher16WatcherInterfaceEPN9grpc_core12_GLOBAL__N_122XdsServerConfigFetcher15ListenerWatcherEEEEE7destroyISB_EEvRSD_PT_(ptr noundef nonnull align 1 dereferenceable(1) %__a, ptr noundef %__p) #5 align 2 {
entry:
  %__a.addr = alloca ptr, align 8
  %__p.addr = alloca ptr, align 8
  store ptr %__a, ptr %__a.addr, align 8
  store ptr %__p, ptr %__p.addr, align 8
  %0 = load ptr, ptr %__a.addr, align 8
  %1 = load ptr, ptr %__p.addr, align 8
  call void @_ZNSt15__new_allocatorISt13_Rb_tree_nodeISt4pairIKPN26grpc_server_config_fetcher16WatcherInterfaceEPN9grpc_core12_GLOBAL__N_122XdsServerConfigFetcher15ListenerWatcherEEEE7destroyISB_EEvPT_(ptr noundef nonnull align 1 dereferenceable(1) %0, ptr noundef %1) #3
  ret void
}

; Function Attrs: mustprogress nounwind uwtable
define internal noundef ptr @_ZNSt13_Rb_tree_nodeISt4pairIKPN26grpc_server_config_fetcher16WatcherInterfaceEPN9grpc_core12_GLOBAL__N_122XdsServerConfigFetcher15ListenerWatcherEEE9_M_valptrEv(ptr noundef nonnull align 8 dereferenceable(48) %this) #5 align 2 {
entry:
  %this.addr = alloca ptr, align 8
  store ptr %this, ptr %this.addr, align 8
  %this1 = load ptr, ptr %this.addr, align 8
  %_M_storage = getelementptr inbounds %"struct.std::_Rb_tree_node", ptr %this1, i32 0, i32 1
  %call = call noundef ptr @_ZN9__gnu_cxx16__aligned_membufISt4pairIKPN26grpc_server_config_fetcher16WatcherInterfaceEPN9grpc_core12_GLOBAL__N_122XdsServerConfigFetcher15ListenerWatcherEEE6_M_ptrEv(ptr noundef nonnull align 8 dereferenceable(16) %_M_storage) #3
  ret ptr %call
}

; Function Attrs: mustprogress nounwind uwtable
define internal noundef nonnull align 1 dereferenceable(1) ptr @_ZNSt8_Rb_treeIPN26grpc_server_config_fetcher16WatcherInterfaceESt4pairIKS2_PN9grpc_core12_GLOBAL__N_122XdsServerConfigFetcher15ListenerWatcherEESt10_Select1stISA_ESt4lessIS2_ESaISA_EE21_M_get_Node_allocatorEv(ptr noundef nonnull align 8 dereferenceable(48) %this) #5 align 2 {
entry:
  %this.addr = alloca ptr, align 8
  store ptr %this, ptr %this.addr, align 8
  %this1 = load ptr, ptr %this.addr, align 8
  %_M_impl = getelementptr inbounds %"class.std::_Rb_tree.173", ptr %this1, i32 0, i32 0
  ret ptr %_M_impl
}

; Function Attrs: mustprogress nounwind uwtable
define internal void @_ZNSt8_Rb_treeIPN26grpc_server_config_fetcher16WatcherInterfaceESt4pairIKS2_PN9grpc_core12_GLOBAL__N_122XdsServerConfigFetcher15ListenerWatcherEESt10_Select1stISA_ESt4lessIS2_ESaISA_EE11_M_put_nodeEPSt13_Rb_tree_nodeISA_E(ptr noundef nonnull align 8 dereferenceable(48) %this, ptr noundef %__p) #5 align 2 personality ptr @__gxx_personality_v0 {
entry:
  %this.addr = alloca ptr, align 8
  %__p.addr = alloca ptr, align 8
  store ptr %this, ptr %this.addr, align 8
  store ptr %__p, ptr %__p.addr, align 8
  %this1 = load ptr, ptr %this.addr, align 8
  %call = call noundef nonnull align 1 dereferenceable(1) ptr @_ZNSt8_Rb_treeIPN26grpc_server_config_fetcher16WatcherInterfaceESt4pairIKS2_PN9grpc_core12_GLOBAL__N_122XdsServerConfigFetcher15ListenerWatcherEESt10_Select1stISA_ESt4lessIS2_ESaISA_EE21_M_get_Node_allocatorEv(ptr noundef nonnull align 8 dereferenceable(48) %this1) #3
  %0 = load ptr, ptr %__p.addr, align 8
  invoke void @_ZNSt16allocator_traitsISaISt13_Rb_tree_nodeISt4pairIKPN26grpc_server_config_fetcher16WatcherInterfaceEPN9grpc_core12_GLOBAL__N_122XdsServerConfigFetcher15ListenerWatcherEEEEE10deallocateERSD_PSC_m(ptr noundef nonnull align 1 dereferenceable(1) %call, ptr noundef %0, i64 noundef 1)
          to label %invoke.cont unwind label %terminate.lpad

invoke.cont:                                      ; preds = %entry
  ret void

terminate.lpad:                                   ; preds = %entry
  %1 = landingpad { ptr, i32 }
          catch ptr null
  %2 = extractvalue { ptr, i32 } %1, 0
  call void @__clang_call_terminate(ptr %2) #21
  unreachable
}

; Function Attrs: mustprogress nounwind uwtable
define internal void @_ZNSt8_Rb_treeIPN26grpc_server_config_fetcher16WatcherInterfaceESt4pairIKS2_PN9grpc_core12_GLOBAL__N_122XdsServerConfigFetcher15ListenerWatcherEESt10_Select1stISA_ESt4lessIS2_ESaISA_EE15_M_destroy_nodeEPSt13_Rb_tree_nodeISA_E(ptr noundef nonnull align 8 dereferenceable(48) %this, ptr noundef %__p) #5 align 2 personality ptr @__gxx_personality_v0 {
entry:
  %this.addr = alloca ptr, align 8
  %__p.addr = alloca ptr, align 8
  store ptr %this, ptr %this.addr, align 8
  store ptr %__p, ptr %__p.addr, align 8
  %this1 = load ptr, ptr %this.addr, align 8
  %call = call noundef nonnull align 1 dereferenceable(1) ptr @_ZNSt8_Rb_treeIPN26grpc_server_config_fetcher16WatcherInterfaceESt4pairIKS2_PN9grpc_core12_GLOBAL__N_122XdsServerConfigFetcher15ListenerWatcherEESt10_Select1stISA_ESt4lessIS2_ESaISA_EE21_M_get_Node_allocatorEv(ptr noundef nonnull align 8 dereferenceable(48) %this1) #3
  %0 = load ptr, ptr %__p.addr, align 8
  %call2 = invoke noundef ptr @_ZNSt13_Rb_tree_nodeISt4pairIKPN26grpc_server_config_fetcher16WatcherInterfaceEPN9grpc_core12_GLOBAL__N_122XdsServerConfigFetcher15ListenerWatcherEEE9_M_valptrEv(ptr noundef nonnull align 8 dereferenceable(48) %0)
          to label %invoke.cont unwind label %terminate.lpad

invoke.cont:                                      ; preds = %entry
  call void @_ZNSt16allocator_traitsISaISt13_Rb_tree_nodeISt4pairIKPN26grpc_server_config_fetcher16WatcherInterfaceEPN9grpc_core12_GLOBAL__N_122XdsServerConfigFetcher15ListenerWatcherEEEEE7destroyISB_EEvRSD_PT_(ptr noundef nonnull align 1 dereferenceable(1) %call, ptr noundef %call2) #3
  ret void

terminate.lpad:                                   ; preds = %entry
  %1 = landingpad { ptr, i32 }
          catch ptr null
  %2 = extractvalue { ptr, i32 } %1, 0
  call void @__clang_call_terminate(ptr %2) #21
  unreachable
}

; Function Attrs: mustprogress nounwind uwtable
define internal void @_ZNSt8_Rb_treeIPN26grpc_server_config_fetcher16WatcherInterfaceESt4pairIKS2_PN9grpc_core12_GLOBAL__N_122XdsServerConfigFetcher15ListenerWatcherEESt10_Select1stISA_ESt4lessIS2_ESaISA_EE12_M_drop_nodeEPSt13_Rb_tree_nodeISA_E(ptr noundef nonnull align 8 dereferenceable(48) %this, ptr noundef %__p) #5 align 2 {
entry:
  %this.addr = alloca ptr, align 8
  %__p.addr = alloca ptr, align 8
  store ptr %this, ptr %this.addr, align 8
  store ptr %__p, ptr %__p.addr, align 8
  %this1 = load ptr, ptr %this.addr, align 8
  %0 = load ptr, ptr %__p.addr, align 8
  call void @_ZNSt8_Rb_treeIPN26grpc_server_config_fetcher16WatcherInterfaceESt4pairIKS2_PN9grpc_core12_GLOBAL__N_122XdsServerConfigFetcher15ListenerWatcherEESt10_Select1stISA_ESt4lessIS2_ESaISA_EE15_M_destroy_nodeEPSt13_Rb_tree_nodeISA_E(ptr noundef nonnull align 8 dereferenceable(48) %this1, ptr noundef %0) #3
  %1 = load ptr, ptr %__p.addr, align 8
  call void @_ZNSt8_Rb_treeIPN26grpc_server_config_fetcher16WatcherInterfaceESt4pairIKS2_PN9grpc_core12_GLOBAL__N_122XdsServerConfigFetcher15ListenerWatcherEESt10_Select1stISA_ESt4lessIS2_ESaISA_EE11_M_put_nodeEPSt13_Rb_tree_nodeISA_E(ptr noundef nonnull align 8 dereferenceable(48) %this1, ptr noundef %1) #3
  ret void
}

; Function Attrs: mustprogress nounwind uwtable
define internal noundef ptr @_ZNSt8_Rb_treeIPN26grpc_server_config_fetcher16WatcherInterfaceESt4pairIKS2_PN9grpc_core12_GLOBAL__N_122XdsServerConfigFetcher15ListenerWatcherEESt10_Select1stISA_ESt4lessIS2_ESaISA_EE7_S_leftEPSt18_Rb_tree_node_base(ptr noundef %__x) #5 align 2 {
entry:
  %__x.addr = alloca ptr, align 8
  store ptr %__x, ptr %__x.addr, align 8
  %0 = load ptr, ptr %__x.addr, align 8
  %_M_left = getelementptr inbounds %"struct.std::_Rb_tree_node_base", ptr %0, i32 0, i32 2
  %1 = load ptr, ptr %_M_left, align 8
  ret ptr %1
}

; Function Attrs: mustprogress nounwind uwtable
define internal noundef ptr @_ZNSt8_Rb_treeIPN26grpc_server_config_fetcher16WatcherInterfaceESt4pairIKS2_PN9grpc_core12_GLOBAL__N_122XdsServerConfigFetcher15ListenerWatcherEESt10_Select1stISA_ESt4lessIS2_ESaISA_EE8_S_rightEPSt18_Rb_tree_node_base(ptr noundef %__x) #5 align 2 {
entry:
  %__x.addr = alloca ptr, align 8
  store ptr %__x, ptr %__x.addr, align 8
  %0 = load ptr, ptr %__x.addr, align 8
  %_M_right = getelementptr inbounds %"struct.std::_Rb_tree_node_base", ptr %0, i32 0, i32 3
  %1 = load ptr, ptr %_M_right, align 8
  ret ptr %1
}

; Function Attrs: mustprogress uwtable
define internal void @_ZNSt8_Rb_treeIPN26grpc_server_config_fetcher16WatcherInterfaceESt4pairIKS2_PN9grpc_core12_GLOBAL__N_122XdsServerConfigFetcher15ListenerWatcherEESt10_Select1stISA_ESt4lessIS2_ESaISA_EE8_M_eraseEPSt13_Rb_tree_nodeISA_E(ptr noundef nonnull align 8 dereferenceable(48) %this, ptr noundef %__x) #4 align 2 {
entry:
  %this.addr = alloca ptr, align 8
  %__x.addr = alloca ptr, align 8
  %__y = alloca ptr, align 8
  store ptr %this, ptr %this.addr, align 8
  store ptr %__x, ptr %__x.addr, align 8
  %this1 = load ptr, ptr %this.addr, align 8
  br label %while.cond

while.cond:                                       ; preds = %while.body, %entry
  %0 = load ptr, ptr %__x.addr, align 8
  %cmp = icmp ne ptr %0, null
  br i1 %cmp, label %while.body, label %while.end

while.body:                                       ; preds = %while.cond
  %1 = load ptr, ptr %__x.addr, align 8
  %call = call noundef ptr @_ZNSt8_Rb_treeIPN26grpc_server_config_fetcher16WatcherInterfaceESt4pairIKS2_PN9grpc_core12_GLOBAL__N_122XdsServerConfigFetcher15ListenerWatcherEESt10_Select1stISA_ESt4lessIS2_ESaISA_EE8_S_rightEPSt18_Rb_tree_node_base(ptr noundef %1) #3
  call void @_ZNSt8_Rb_treeIPN26grpc_server_config_fetcher16WatcherInterfaceESt4pairIKS2_PN9grpc_core12_GLOBAL__N_122XdsServerConfigFetcher15ListenerWatcherEESt10_Select1stISA_ESt4lessIS2_ESaISA_EE8_M_eraseEPSt13_Rb_tree_nodeISA_E(ptr noundef nonnull align 8 dereferenceable(48) %this1, ptr noundef %call)
  %2 = load ptr, ptr %__x.addr, align 8
  %call2 = call noundef ptr @_ZNSt8_Rb_treeIPN26grpc_server_config_fetcher16WatcherInterfaceESt4pairIKS2_PN9grpc_core12_GLOBAL__N_122XdsServerConfigFetcher15ListenerWatcherEESt10_Select1stISA_ESt4lessIS2_ESaISA_EE7_S_leftEPSt18_Rb_tree_node_base(ptr noundef %2) #3
  store ptr %call2, ptr %__y, align 8
  %3 = load ptr, ptr %__x.addr, align 8
  call void @_ZNSt8_Rb_treeIPN26grpc_server_config_fetcher16WatcherInterfaceESt4pairIKS2_PN9grpc_core12_GLOBAL__N_122XdsServerConfigFetcher15ListenerWatcherEESt10_Select1stISA_ESt4lessIS2_ESaISA_EE12_M_drop_nodeEPSt13_Rb_tree_nodeISA_E(ptr noundef nonnull align 8 dereferenceable(48) %this1, ptr noundef %3) #3
  %4 = load ptr, ptr %__y, align 8
  store ptr %4, ptr %__x.addr, align 8
  br label %while.cond, !llvm.loop !6

while.end:                                        ; preds = %while.cond
  ret void
}